target datalayout = "e-m:e-p270:32:32-p271:32:32-p272:64:64-i64:64-i128:128-f80:128-n8:16:32:64-S128"
target triple = "x86_64-pc-linux-gnu"

@ett_netb_flags = internal global i32 0, align 4
@hf_netb_xmit_corrl = internal global i32 0, align 4
@hf_netb_resp_corrl = internal global i32 0, align 4
@hf_netb_local_ses_no = internal global i32 0, align 4
@hf_netb_remote_ses_no = internal global i32 0, align 4
@hf_netb_flags = internal global i32 0, align 4
@hf_netb_flags_ack = internal global i32 0, align 4
@hf_netb_flags_ack_expected = internal global i32 0, align 4
@hf_netb_flags_recv_cont_req = internal global i32 0, align 4
@hf_netb_resync_indicator = internal global i32 0, align 4
@.str.196 = private unnamed_addr constant [18 x i8] c"DATA FIRST MIDDLE\00", align 1
@.str.197 = private unnamed_addr constant [11 x i8] c"No re-sync\00", align 1
@.str.198 = private unnamed_addr constant [43 x i8] c"First '%s' following 'Receive Outstanding'\00", align 1

; Function Attrs: nounwind uwtable
define internal zeroext i8 @nb_local_session(ptr noundef %0, i32 noundef %1, ptr noundef %2) #0 {
  %4 = alloca ptr, align 8
  %5 = alloca i32, align 4
  %6 = alloca ptr, align 8
  %7 = alloca i8, align 1
  store ptr %0, ptr %4, align 8
  store i32 %1, ptr %5, align 4
  store ptr %2, ptr %6, align 8
  %8 = load ptr, ptr %4, align 8
  %9 = load i32, ptr %5, align 4
  %10 = add i32 %9, 13
  %11 = call zeroext i8 @tvb_get_guint8(ptr noundef %8, i32 noundef %10)
  store i8 %11, ptr %7, align 1
  %12 = load ptr, ptr %6, align 8
  %13 = load i32, ptr @hf_netb_local_ses_no, align 4
  %14 = load ptr, ptr %4, align 8
  %15 = load i32, ptr %5, align 4
  %16 = add i32 %15, 13
  %17 = load i8, ptr %7, align 1
  %18 = zext i8 %17 to i32
  %19 = call ptr @proto_tree_add_uint(ptr noundef %12, i32 noundef %13, ptr noundef %14, i32 noundef %16, i32 noundef 1, i32 noundef %18)
  %20 = load i8, ptr %7, align 1
  ret i8 %20
}

; Function Attrs: nounwind uwtable
define internal zeroext i8 @nb_remote_session(ptr noundef %0, i32 noundef %1, ptr noundef %2) #0 {
  %4 = alloca ptr, align 8
  %5 = alloca i32, align 4
  %6 = alloca ptr, align 8
  %7 = alloca i8, align 1
  store ptr %0, ptr %4, align 8
  store i32 %1, ptr %5, align 4
  store ptr %2, ptr %6, align 8
  %8 = load ptr, ptr %4, align 8
  %9 = load i32, ptr %5, align 4
  %10 = add i32 %9, 12
  %11 = call zeroext i8 @tvb_get_guint8(ptr noundef %8, i32 noundef %10)
  store i8 %11, ptr %7, align 1
  %12 = load ptr, ptr %6, align 8
  %13 = load i32, ptr @hf_netb_remote_ses_no, align 4
  %14 = load ptr, ptr %4, align 8
  %15 = load i32, ptr %5, align 4
  %16 = add i32 %15, 12
  %17 = load i8, ptr %7, align 1
  %18 = zext i8 %17 to i32
  %19 = call ptr @proto_tree_add_uint(ptr noundef %12, i32 noundef %13, ptr noundef %14, i32 noundef %16, i32 noundef 1, i32 noundef %18)
  %20 = load i8, ptr %7, align 1
  ret i8 %20
}

; Function Attrs: nounwind uwtable
define internal void @nb_resp_corrl(ptr noundef %0, i32 noundef %1, ptr noundef %2) #0 {
  %4 = alloca ptr, align 8
  %5 = alloca i32, align 4
  %6 = alloca ptr, align 8
  store ptr %0, ptr %4, align 8
  store i32 %1, ptr %5, align 4
  store ptr %2, ptr %6, align 8
  %7 = load ptr, ptr %6, align 8
  %8 = load i32, ptr @hf_netb_resp_corrl, align 4
  %9 = load ptr, ptr %4, align 8
  %10 = load i32, ptr %5, align 4
  %11 = add i32 %10, 10
  %12 = call ptr @proto_tree_add_item(ptr noundef %7, i32 noundef %8, ptr noundef %9, i32 noundef %11, i32 noundef 2, i32 noundef -2147483648)
  ret void
}

; Function Attrs: nounwind uwtable
define internal void @nb_xmit_corrl(ptr noundef %0, i32 noundef %1, ptr noundef %2) #0 {
  %4 = alloca ptr, align 8
  %5 = alloca i32, align 4
  %6 = alloca ptr, align 8
  store ptr %0, ptr %4, align 8
  store i32 %1, ptr %5, align 4
  store ptr %2, ptr %6, align 8
  %7 = load ptr, ptr %6, align 8
  %8 = load i32, ptr @hf_netb_xmit_corrl, align 4
  %9 = load ptr, ptr %4, align 8
  %10 = load i32, ptr %5, align 4
  %11 = add i32 %10, 8
  %12 = call ptr @proto_tree_add_item(ptr noundef %7, i32 noundef %8, ptr noundef %9, i32 noundef %11, i32 noundef 2, i32 noundef -2147483648)
  ret void
}

; Function Attrs: nounwind uwtable
define internal void @nb_resync_indicator(ptr noundef %0, i32 noundef %1, ptr noundef %2, ptr noundef %3) #0 {
  %5 = alloca ptr, align 8
  %6 = alloca i32, align 4
  %7 = alloca ptr, align 8
  %8 = alloca ptr, align 8
  %9 = alloca i16, align 2
  store ptr %0, ptr %5, align 8
  store i32 %1, ptr %6, align 4
  store ptr %2, ptr %7, align 8
  store ptr %3, ptr %8, align 8
  %10 = load ptr, ptr %5, align 8
  %11 = load i32, ptr %6, align 4
  %12 = add i32 %11, 6
  %13 = call zeroext i16 @tvb_get_letohs(ptr noundef %10, i32 noundef %12)
  store i16 %13, ptr %9, align 2
  %14 = load i16, ptr %9, align 2
  %15 = zext i16 %14 to i32
  switch i32 %15, label %35 [
    i32 0, label %16
    i32 1, label %25
  ]

16:                                               ; preds = %4
  %17 = load ptr, ptr %7, align 8
  %18 = load i32, ptr @hf_netb_resync_indicator, align 4
  %19 = load ptr, ptr %5, align 8
  %20 = load i32, ptr %6, align 4
  %21 = add i32 %20, 6
  %22 = load i16, ptr %9, align 2
  %23 = zext i16 %22 to i32
  %24 = call ptr (ptr, i32, ptr, i32, i32, i32, ptr, ...) @proto_tree_add_uint_format_value(ptr noundef %17, i32 noundef %18, ptr noundef %19, i32 noundef %21, i32 noundef 2, i32 noundef %23, ptr noundef @.str.197)
  br label %42

25:                                               ; preds = %4
  %26 = load ptr, ptr %7, align 8
  %27 = load i32, ptr @hf_netb_resync_indicator, align 4
  %28 = load ptr, ptr %5, align 8
  %29 = load i32, ptr %6, align 4
  %30 = add i32 %29, 6
  %31 = load i16, ptr %9, align 2
  %32 = zext i16 %31 to i32
  %33 = load ptr, ptr %8, align 8
  %34 = call ptr (ptr, i32, ptr, i32, i32, i32, ptr, ...) @proto_tree_add_uint_format_value(ptr noundef %26, i32 noundef %27, ptr noundef %28, i32 noundef %30, i32 noundef 2, i32 noundef %32, ptr noundef @.str.198, ptr noundef %33)
  br label %42

35:                                               ; preds = %4
  %36 = load ptr, ptr %7, align 8
  %37 = load i32, ptr @hf_netb_resync_indicator, align 4
  %38 = load ptr, ptr %5, align 8
  %39 = load i32, ptr %6, align 4
  %40 = add i32 %39, 6
  %41 = call ptr @proto_tree_add_item(ptr noundef %36, i32 noundef %37, ptr noundef %38, i32 noundef %40, i32 noundef 2, i32 noundef -2147483648)
  br label %42

42:                                               ; preds = %35, %25, %16
  ret void
}

; Function Attrs: nounwind uwtable
define internal void @netbios_data_first_middle_flags(ptr noundef %0, ptr noundef %1, i32 noundef %2) #0 {
  %4 = alloca ptr, align 8
  %5 = alloca ptr, align 8
  %6 = alloca i32, align 4
  %7 = alloca ptr, align 8
  %8 = alloca ptr, align 8
  store ptr %0, ptr %4, align 8
  store ptr %1, ptr %5, align 8
  store i32 %2, ptr %6, align 4
  %9 = load ptr, ptr %5, align 8
  %10 = load i32, ptr @hf_netb_flags, align 4
  %11 = load ptr, ptr %4, align 8
  %12 = load i32, ptr %6, align 4
  %13 = call ptr @proto_tree_add_item(ptr noundef %9, i32 noundef %10, ptr noundef %11, i32 noundef %12, i32 noundef 1, i32 noundef -2147483648)
  store ptr %13, ptr %8, align 8
  %14 = load ptr, ptr %8, align 8
  %15 = load i32, ptr @ett_netb_flags, align 4
  %16 = call ptr @proto_item_add_subtree(ptr noundef %14, i32 noundef %15)
  store ptr %16, ptr %7, align 8
  %17 = load ptr, ptr %7, align 8
  %18 = load i32, ptr @hf_netb_flags_ack, align 4
  %19 = load ptr, ptr %4, align 8
  %20 = load i32, ptr %6, align 4
  %21 = call ptr @proto_tree_add_item(ptr noundef %17, i32 noundef %18, ptr noundef %19, i32 noundef %20, i32 noundef 1, i32 noundef -2147483648)
  %22 = load ptr, ptr %7, align 8
  %23 = load i32, ptr @hf_netb_flags_ack_expected, align 4
  %24 = load ptr, ptr %4, align 8
  %25 = load i32, ptr %6, align 4
  %26 = call ptr @proto_tree_add_item(ptr noundef %22, i32 noundef %23, ptr noundef %24, i32 noundef %25, i32 noundef 1, i32 noundef -2147483648)
  %27 = load ptr, ptr %7, align 8
  %28 = load i32, ptr @hf_netb_flags_recv_cont_req, align 4
  %29 = load ptr, ptr %4, align 8
  %30 = load i32, ptr %6, align 4
  %31 = call ptr @proto_tree_add_item(ptr noundef %27, i32 noundef %28, ptr noundef %29, i32 noundef %30, i32 noundef 1, i32 noundef -2147483648)
  ret void
}

; Function Attrs: nounwind uwtable
define internal i32 @dissect_netb_data_first_middle(ptr noundef %0, ptr noundef %1, i32 noundef %2, ptr noundef %3) #0 {
  %5 = alloca ptr, align 8
  %6 = alloca ptr, align 8
  %7 = alloca i32, align 4
  %8 = alloca ptr, align 8
  %9 = alloca i8, align 1
  %10 = alloca i8, align 1
  store ptr %0, ptr %5, align 8
  store ptr %1, ptr %6, align 8
  store i32 %2, ptr %7, align 4
  store ptr %3, ptr %8, align 8
  %11 = load ptr, ptr %5, align 8
  %12 = load ptr, ptr %8, align 8
  %13 = load i32, ptr %7, align 4
  %14 = add i32 %13, 5
  call void @netbios_data_first_middle_flags(ptr noundef %11, ptr noundef %12, i32 noundef %14)
  %15 = load ptr, ptr %5, align 8
  %16 = load i32, ptr %7, align 4
  %17 = load ptr, ptr %8, align 8
  call void @nb_resync_indicator(ptr noundef %15, i32 noundef %16, ptr noundef %17, ptr noundef @.str.196)
  %18 = load ptr, ptr %5, align 8
  %19 = load i32, ptr %7, align 4
  %20 = load ptr, ptr %8, align 8
  call void @nb_xmit_corrl(ptr noundef %18, i32 noundef %19, ptr noundef %20)
  %21 = load ptr, ptr %5, align 8
  %22 = load i32, ptr %7, align 4
  %23 = load ptr, ptr %8, align 8
  call void @nb_resp_corrl(ptr noundef %21, i32 noundef %22, ptr noundef %23)
  %24 = load ptr, ptr %5, align 8
  %25 = load i32, ptr %7, align 4
  %26 = load ptr, ptr %8, align 8
  %27 = call zeroext i8 @nb_remote_session(ptr noundef %24, i32 noundef %25, ptr noundef %26)
  store i8 %27, ptr %9, align 1
  %28 = load ptr, ptr %5, align 8
  %29 = load i32, ptr %7, align 4
  %30 = load ptr, ptr %8, align 8
  %31 = call zeroext i8 @nb_local_session(ptr noundef %28, i32 noundef %29, ptr noundef %30)
  store i8 %31, ptr %10, align 1
  %32 = load i8, ptr %9, align 1
  %33 = zext i8 %32 to i32
  %34 = shl i32 %33, 8
  %35 = load i8, ptr %10, align 1
  %36 = zext i8 %35 to i32
  %37 = add i32 %34, %36
  ret i32 %37
}