; Function Attrs: nounwind uwtable
define internal range(i32 0, 65536) i32 @dissect_netb_data_first_middle(ptr noundef %0, ptr readnone captures(none) %1, i32 noundef %2, ptr noundef %3) #1 {
  %5 = add i32 %2, 5
  %6 = load i32, ptr @hf_netb_flags, align 4
  %7 = tail call ptr @proto_tree_add_item(ptr noundef %3, i32 noundef %6, ptr noundef %0, i32 noundef %5, i32 noundef 1, i32 noundef -2147483648) #6
  %8 = load i32, ptr @ett_netb_flags, align 4
  %9 = tail call ptr @proto_item_add_subtree(ptr noundef %7, i32 noundef %8) #6
  %10 = load i32, ptr @hf_netb_flags_ack, align 4
  %11 = tail call ptr @proto_tree_add_item(ptr noundef %9, i32 noundef %10, ptr noundef %0, i32 noundef %5, i32 noundef 1, i32 noundef -2147483648) #6
  %12 = load i32, ptr @hf_netb_flags_ack_expected, align 4
  %13 = tail call ptr @proto_tree_add_item(ptr noundef %9, i32 noundef %12, ptr noundef %0, i32 noundef %5, i32 noundef 1, i32 noundef -2147483648) #6
  %14 = load i32, ptr @hf_netb_flags_recv_cont_req, align 4
  %15 = tail call ptr @proto_tree_add_item(ptr noundef %9, i32 noundef %14, ptr noundef %0, i32 noundef %5, i32 noundef 1, i32 noundef -2147483648) #6
  %16 = add i32 %2, 6
  %17 = tail call zeroext i16 @tvb_get_letohs(ptr noundef %0, i32 noundef %16) #6
  %18 = load i32, ptr @hf_netb_resync_indicator, align 4
  switch i16 %17, label %23 [
    i16 0, label %19
    i16 1, label %21
  ]

19:                                               ; preds = %4
  %20 = tail call ptr (ptr, i32, ptr, i32, i32, i32, ptr, ...) @proto_tree_add_uint_format_value(ptr noundef %3, i32 noundef %18, ptr noundef %0, i32 noundef %16, i32 noundef 2, i32 noundef 0, ptr noundef nonnull @.str.197) #6
  br label %nb_resync_indicator.exit

21:                                               ; preds = %4
  %22 = tail call ptr (ptr, i32, ptr, i32, i32, i32, ptr, ...) @proto_tree_add_uint_format_value(ptr noundef %3, i32 noundef %18, ptr noundef %0, i32 noundef %16, i32 noundef 2, i32 noundef 1, ptr noundef nonnull @.str.198, ptr noundef nonnull @.str.196) #6
  br label %nb_resync_indicator.exit

23:                                               ; preds = %4
  %24 = tail call ptr @proto_tree_add_item(ptr noundef %3, i32 noundef %18, ptr noundef %0, i32 noundef %16, i32 noundef 2, i32 noundef -2147483648) #6
  br label %nb_resync_indicator.exit

nb_resync_indicator.exit:                         ; preds = %19, %21, %23
  %25 = load i32, ptr @hf_netb_xmit_corrl, align 4
  %26 = add i32 %2, 8
  %27 = tail call ptr @proto_tree_add_item(ptr noundef %3, i32 noundef %25, ptr noundef %0, i32 noundef %26, i32 noundef 2, i32 noundef -2147483648) #6
  %28 = load i32, ptr @hf_netb_resp_corrl, align 4
  %29 = add i32 %2, 10
  %30 = tail call ptr @proto_tree_add_item(ptr noundef %3, i32 noundef %28, ptr noundef %0, i32 noundef %29, i32 noundef 2, i32 noundef -2147483648) #6
  %31 = add i32 %2, 12
  %32 = tail call zeroext i8 @tvb_get_guint8(ptr noundef %0, i32 noundef %31) #6
  %33 = load i32, ptr @hf_netb_remote_ses_no, align 4
  %34 = zext i8 %32 to i32
  %35 = tail call ptr @proto_tree_add_uint(ptr noundef %3, i32 noundef %33, ptr noundef %0, i32 noundef %31, i32 noundef 1, i32 noundef %34) #6
  %36 = add i32 %2, 13
  %37 = tail call zeroext i8 @tvb_get_guint8(ptr noundef %0, i32 noundef %36) #6
  %38 = load i32, ptr @hf_netb_local_ses_no, align 4
  %39 = zext i8 %37 to i32
  %40 = tail call ptr @proto_tree_add_uint(ptr noundef %3, i32 noundef %38, ptr noundef %0, i32 noundef %36, i32 noundef 1, i32 noundef %39) #6
  %41 = shl nuw nsw i32 %34, 8
  %42 = or disjoint i32 %41, %39
  ret i32 %42
}